target datalayout = "e-m:e-p270:32:32-p271:32:32-p272:64:64-i64:64-i128:128-f80:128-n8:16:32:64-S128"
target triple = "x86_64-pc-linux-gnu"

%struct.List = type { i32, i32, i32, ptr, [0 x %union.ListCell] }
%union.ListCell = type { ptr }
%struct.Node = type { i32 }
%struct.RelabelType = type { %struct.Expr, ptr, i32, i32, i32, i32, i32 }
%struct.Expr = type { i32 }

; Function Attrs: inlinehint nounwind uwtable
define internal ptr @list_nth_cell(ptr noundef %0, i32 noundef %1) #3 {
  %3 = alloca ptr, align 8
  %4 = alloca i32, align 4
  store ptr %0, ptr %3, align 8
  store i32 %1, ptr %4, align 4
  %5 = load ptr, ptr %3, align 8
  %6 = getelementptr inbounds nuw %struct.List, ptr %5, i32 0, i32 3
  %7 = load ptr, ptr %6, align 8
  %8 = load i32, ptr %4, align 4
  %9 = sext i32 %8 to i64
  %10 = getelementptr inbounds %union.ListCell, ptr %7, i64 %9
  ret ptr %10
}

; Function Attrs: nounwind uwtable
define dso_local zeroext i1 @examine_opclause_args(ptr noundef %0, ptr noundef %1, ptr noundef %2, ptr noundef %3) #0 {
  %5 = alloca i1, align 1
  %6 = alloca ptr, align 8
  %7 = alloca ptr, align 8
  %8 = alloca ptr, align 8
  %9 = alloca ptr, align 8
  %10 = alloca ptr, align 8
  %11 = alloca ptr, align 8
  %12 = alloca i8, align 1
  %13 = alloca ptr, align 8
  %14 = alloca ptr, align 8
  %15 = alloca i32, align 4
  store ptr %0, ptr %6, align 8
  store ptr %1, ptr %7, align 8
  store ptr %2, ptr %8, align 8
  store ptr %3, ptr %9, align 8
  call void @llvm.lifetime.start.p0(i64 8, ptr %10) #8
  call void @llvm.lifetime.start.p0(i64 8, ptr %11) #8
  call void @llvm.lifetime.start.p0(i64 1, ptr %12) #8
  call void @llvm.lifetime.start.p0(i64 8, ptr %13) #8
  call void @llvm.lifetime.start.p0(i64 8, ptr %14) #8
  %16 = load ptr, ptr %6, align 8
  %17 = call ptr @list_nth_cell(ptr noundef %16, i32 noundef 0)
  %18 = load ptr, ptr %17, align 8
  store ptr %18, ptr %13, align 8
  %19 = load ptr, ptr %6, align 8
  %20 = call ptr @list_nth_cell(ptr noundef %19, i32 noundef 1)
  %21 = load ptr, ptr %20, align 8
  store ptr %21, ptr %14, align 8
  %22 = load ptr, ptr %13, align 8
  %23 = getelementptr inbounds nuw %struct.Node, ptr %22, i32 0, i32 0
  %24 = load i32, ptr %23, align 4
  %25 = icmp eq i32 %24, 27
  br i1 %25, label %26, label %30

26:                                               ; preds = %4
  %27 = load ptr, ptr %13, align 8
  %28 = getelementptr inbounds nuw %struct.RelabelType, ptr %27, i32 0, i32 1
  %29 = load ptr, ptr %28, align 8
  store ptr %29, ptr %13, align 8
  br label %30

30:                                               ; preds = %26, %4
  %31 = load ptr, ptr %14, align 8
  %32 = getelementptr inbounds nuw %struct.Node, ptr %31, i32 0, i32 0
  %33 = load i32, ptr %32, align 4
  %34 = icmp eq i32 %33, 27
  br i1 %34, label %35, label %39

35:                                               ; preds = %30
  %36 = load ptr, ptr %14, align 8
  %37 = getelementptr inbounds nuw %struct.RelabelType, ptr %36, i32 0, i32 1
  %38 = load ptr, ptr %37, align 8
  store ptr %38, ptr %14, align 8
  br label %39

39:                                               ; preds = %35, %30
  %40 = load ptr, ptr %14, align 8
  %41 = getelementptr inbounds nuw %struct.Node, ptr %40, i32 0, i32 0
  %42 = load i32, ptr %41, align 4
  %43 = icmp eq i32 %42, 7
  br i1 %43, label %44, label %47

44:                                               ; preds = %39
  %45 = load ptr, ptr %13, align 8
  store ptr %45, ptr %10, align 8
  %46 = load ptr, ptr %14, align 8
  store ptr %46, ptr %11, align 8
  store i8 1, ptr %12, align 1
  br label %57

47:                                               ; preds = %39
  %48 = load ptr, ptr %13, align 8
  %49 = getelementptr inbounds nuw %struct.Node, ptr %48, i32 0, i32 0
  %50 = load i32, ptr %49, align 4
  %51 = icmp eq i32 %50, 7
  br i1 %51, label %52, label %55

52:                                               ; preds = %47
  %53 = load ptr, ptr %14, align 8
  store ptr %53, ptr %10, align 8
  %54 = load ptr, ptr %13, align 8
  store ptr %54, ptr %11, align 8
  store i8 0, ptr %12, align 1
  br label %56

55:                                               ; preds = %47
  store i1 false, ptr %5, align 1
  store i32 1, ptr %15, align 4
  br label %78

56:                                               ; preds = %52
  br label %57

57:                                               ; preds = %56, %44
  %58 = load ptr, ptr %7, align 8
  %59 = icmp ne ptr %58, null
  br i1 %59, label %60, label %63

60:                                               ; preds = %57
  %61 = load ptr, ptr %10, align 8
  %62 = load ptr, ptr %7, align 8
  store ptr %61, ptr %62, align 8
  br label %63

63:                                               ; preds = %60, %57
  %64 = load ptr, ptr %8, align 8
  %65 = icmp ne ptr %64, null
  br i1 %65, label %66, label %69

66:                                               ; preds = %63
  %67 = load ptr, ptr %11, align 8
  %68 = load ptr, ptr %8, align 8
  store ptr %67, ptr %68, align 8
  br label %69

69:                                               ; preds = %66, %63
  %70 = load ptr, ptr %9, align 8
  %71 = icmp ne ptr %70, null
  br i1 %71, label %72, label %77

72:                                               ; preds = %69
  %73 = load i8, ptr %12, align 1, !range !6, !noundef !7
  %74 = trunc i8 %73 to i1
  %75 = load ptr, ptr %9, align 8
  %76 = zext i1 %74 to i8
  store i8 %76, ptr %75, align 1
  br label %77

77:                                               ; preds = %72, %69
  store i1 true, ptr %5, align 1
  store i32 1, ptr %15, align 4
  br label %78

78:                                               ; preds = %77, %55
  call void @llvm.lifetime.end.p0(i64 8, ptr %14) #8
  call void @llvm.lifetime.end.p0(i64 8, ptr %13) #8
  call void @llvm.lifetime.end.p0(i64 1, ptr %12) #8
  call void @llvm.lifetime.end.p0(i64 8, ptr %11) #8
  call void @llvm.lifetime.end.p0(i64 8, ptr %10) #8
  %79 = load i1, ptr %5, align 1
  ret i1 %79
}