; Function Attrs: mustprogress nofree norecurse nosync nounwind willreturn memory(read, argmem: readwrite, inaccessiblemem: none) uwtable
define dso_local noundef zeroext i1 @examine_opclause_args(ptr noundef readonly captures(none) %0, ptr noundef writeonly captures(address_is_null) %1, ptr noundef writeonly captures(address_is_null) %2, ptr noundef writeonly captures(address_is_null) %3) local_unnamed_addr #6 {
  %5 = getelementptr i8, ptr %0, i64 16
  %.val = load ptr, ptr %5, align 8
  %6 = load ptr, ptr %.val, align 8
  %7 = getelementptr inbounds nuw i8, ptr %.val, i64 8
  %8 = load ptr, ptr %7, align 8
  %9 = load i32, ptr %6, align 4
  %10 = icmp eq i32 %9, 27
  br i1 %10, label %11, label %14

11:                                               ; preds = %4
  %12 = getelementptr inbounds nuw i8, ptr %6, i64 8
  %13 = load ptr, ptr %12, align 8
  br label %14

14:                                               ; preds = %11, %4
  %.021 = phi ptr [ %13, %11 ], [ %6, %4 ]
  %15 = load i32, ptr %8, align 4
  %16 = icmp eq i32 %15, 27
  br i1 %16, label %17, label %20

17:                                               ; preds = %14
  %18 = getelementptr inbounds nuw i8, ptr %8, i64 8
  %19 = load ptr, ptr %18, align 8
  %.pr = load i32, ptr %19, align 4
  br label %20

20:                                               ; preds = %17, %14
  %21 = phi i32 [ %.pr, %17 ], [ %15, %14 ]
  %.0 = phi ptr [ %19, %17 ], [ %8, %14 ]
  %22 = icmp eq i32 %21, 7
  br i1 %22, label %26, label %23

23:                                               ; preds = %20
  %24 = load i32, ptr %.021, align 4
  %25 = icmp eq i32 %24, 7
  br i1 %25, label %26, label %33

26:                                               ; preds = %23, %20
  %.024 = phi ptr [ %.021, %20 ], [ %.0, %23 ]
  %.023 = phi ptr [ %.0, %20 ], [ %.021, %23 ]
  %.not = icmp eq ptr %1, null
  br i1 %.not, label %28, label %27

27:                                               ; preds = %26
  store ptr %.024, ptr %1, align 8
  br label %28

28:                                               ; preds = %27, %26
  %.not29 = icmp eq ptr %2, null
  br i1 %.not29, label %30, label %29

29:                                               ; preds = %28
  store ptr %.023, ptr %2, align 8
  br label %30

30:                                               ; preds = %29, %28
  %.not30 = icmp eq ptr %3, null
  br i1 %.not30, label %33, label %31

31:                                               ; preds = %30
  %32 = zext i1 %22 to i8
  store i8 %32, ptr %3, align 1
  br label %33

33:                                               ; preds = %30, %31, %23
  %.025 = phi i1 [ false, %23 ], [ true, %31 ], [ true, %30 ]
  ret i1 %.025
}